target datalayout = "e-m:e-p270:32:32-p271:32:32-p272:64:64-i64:64-i128:128-f80:128-n8:16:32:64-S128"
target triple = "x86_64-pc-linux-gnu"

%class.OopHandle = type { ptr }
%class.Klass = type <{ %class.Metadata, i32, i32, i32, i32, ptr, ptr, ptr, [8 x ptr], %class.OopHandle, ptr, ptr, ptr, ptr, ptr, i32, %class.AccessFlags, i64, i64, i8, i8, i16, i16, [2 x i8], i32, [4 x i8] }>
%class.Metadata = type { ptr }
%class.AccessFlags = type { i32 }

@_ZN15ClassLoaderData27_the_null_class_loader_dataE = external global ptr, align 8

; Function Attrs: mustprogress nounwind uwtable
define linkonce_odr hidden noundef signext i16 @_ZNK5Klass22shared_classpath_indexEv(ptr noundef nonnull align 8 dereferenceable(196) %0) #1 comdat align 2 {
  %2 = alloca ptr, align 8
  store ptr %0, ptr %2, align 8
  %3 = load ptr, ptr %2, align 8
  %4 = getelementptr inbounds %class.Klass, ptr %3, i32 0, i32 21
  %5 = load i16, ptr %4, align 2
  ret i16 %5
}

; Function Attrs: mustprogress nounwind uwtable
define linkonce_odr hidden noundef zeroext i1 @_ZNK15ClassLoaderData29is_the_null_class_loader_dataEv(ptr noundef nonnull align 8 dereferenceable(160) %0) #1 comdat align 2 {
  %2 = alloca ptr, align 8
  store ptr %0, ptr %2, align 8
  %3 = load ptr, ptr %2, align 8
  %4 = load ptr, ptr @_ZN15ClassLoaderData27_the_null_class_loader_dataE, align 8
  %5 = icmp eq ptr %3, %4
  ret i1 %5
}

; Function Attrs: mustprogress nounwind uwtable
define hidden void @_ZN16SystemDictionary22load_shared_class_miscEP13InstanceKlassP15ClassLoaderData(ptr noundef %0, ptr noundef %1) #1 align 2 {
  %3 = alloca ptr, align 8
  %4 = alloca ptr, align 8
  %5 = alloca i16, align 2
  store ptr %0, ptr %3, align 8
  store ptr %1, ptr %4, align 8
  %6 = load ptr, ptr %3, align 8
  %7 = load ptr, ptr %4, align 8
  call void @_ZNK13InstanceKlass24print_class_load_loggingEP15ClassLoaderDataPK11ModuleEntryPK15ClassFileStream(ptr noundef nonnull align 8 dereferenceable(464) %6, ptr noundef %7, ptr noundef null, ptr noundef null)
  %8 = load ptr, ptr %4, align 8
  %9 = call noundef zeroext i1 @_ZNK15ClassLoaderData29is_the_null_class_loader_dataEv(ptr noundef nonnull align 8 dereferenceable(160) %8)
  br i1 %9, label %10, label %15

10:                                               ; preds = %2
  %11 = load ptr, ptr %3, align 8
  %12 = call noundef signext i16 @_ZNK5Klass22shared_classpath_indexEv(ptr noundef nonnull align 8 dereferenceable(196) %11)
  store i16 %12, ptr %5, align 2
  %13 = load ptr, ptr %3, align 8
  %14 = load i16, ptr %5, align 2
  call void @_ZN13InstanceKlass19set_classpath_indexEs(ptr noundef nonnull align 8 dereferenceable(464) %13, i16 noundef signext %14)
  br label %15

15:                                               ; preds = %10, %2
  %16 = load ptr, ptr %3, align 8
  call void @_ZN19ClassLoadingService19notify_class_loadedEP13InstanceKlassb(ptr noundef %16, i1 noundef zeroext true)
  ret void
}