; Function Attrs: mustprogress nounwind uwtable
define hidden void @_ZN16SystemDictionary22load_shared_class_miscEP13InstanceKlassP15ClassLoaderData(ptr noundef nonnull %0, ptr noundef %1) local_unnamed_addr #0 align 2 {
  tail call void @_ZNK13InstanceKlass24print_class_load_loggingEP15ClassLoaderDataPK11ModuleEntryPK15ClassFileStream(ptr noundef nonnull align 8 dereferenceable(464) %0, ptr noundef %1, ptr noundef null, ptr noundef null) #14
  %3 = load ptr, ptr @_ZN15ClassLoaderData27_the_null_class_loader_dataE, align 8
  %4 = icmp eq ptr %3, %1
  br i1 %4, label %5, label %8

5:                                                ; preds = %2
  %6 = getelementptr inbounds i8, ptr %0, i64 186
  %7 = load i16, ptr %6, align 2
  tail call void @_ZN13InstanceKlass19set_classpath_indexEs(ptr noundef nonnull align 8 dereferenceable(464) %0, i16 noundef signext %7) #14
  br label %8

8:                                                ; preds = %5, %2
  tail call void @_ZN19ClassLoadingService19notify_class_loadedEP13InstanceKlassb(ptr noundef nonnull %0, i1 noundef zeroext true) #14
  ret void
}